target datalayout = "e-m:e-p270:32:32-p271:32:32-p272:64:64-i64:64-i128:128-f80:128-n8:16:32:64-S128"
target triple = "x86_64-pc-linux-gnu"

%struct._object = type { %union.anon, ptr }
%union.anon = type { i64 }
%struct.PyVarObject = type { %struct._object, i64 }
%struct._typeobject = type { %struct.PyVarObject, ptr, i64, i64, ptr, i64, ptr, ptr, ptr, ptr, ptr, ptr, ptr, ptr, ptr, ptr, ptr, ptr, ptr, i64, ptr, ptr, ptr, ptr, i64, ptr, ptr, ptr, ptr, ptr, ptr, ptr, ptr, ptr, i64, ptr, ptr, ptr, ptr, ptr, ptr, ptr, ptr, ptr, ptr, ptr, i32, ptr, ptr, i8, i16 }
%struct.fileio = type { %struct._object, i32, i8, i8, ptr, ptr, ptr }

; Function Attrs: nounwind uwtable
define internal ptr @fileio_new(ptr noundef %0, ptr noundef %1, ptr noundef %2) #0 {
  %4 = alloca ptr, align 8
  %5 = alloca ptr, align 8
  %6 = alloca ptr, align 8
  %7 = alloca ptr, align 8
  %8 = alloca ptr, align 8
  %9 = alloca i32, align 4
  store ptr %0, ptr %5, align 8, !tbaa !19
  store ptr %1, ptr %6, align 8, !tbaa !4
  store ptr %2, ptr %7, align 8, !tbaa !4
  call void @llvm.lifetime.start.p0(i64 8, ptr %8) #9
  %10 = load ptr, ptr %5, align 8, !tbaa !19
  %11 = getelementptr inbounds nuw %struct._typeobject, ptr %10, i32 0, i32 36
  %12 = load ptr, ptr %11, align 8, !tbaa !36
  %13 = load ptr, ptr %5, align 8, !tbaa !19
  %14 = call ptr %12(ptr noundef %13, i64 noundef 0)
  store ptr %14, ptr %8, align 8, !tbaa !15
  %15 = load ptr, ptr %8, align 8, !tbaa !15
  %16 = icmp eq ptr %15, null
  br i1 %16, label %17, label %18

17:                                               ; preds = %3
  store ptr null, ptr %4, align 8
  store i32 1, ptr %9, align 4
  br label %56

18:                                               ; preds = %3
  %19 = load ptr, ptr %8, align 8, !tbaa !15
  %20 = getelementptr inbounds nuw %struct.fileio, ptr %19, i32 0, i32 1
  store i32 -1, ptr %20, align 8, !tbaa !9
  %21 = load ptr, ptr %8, align 8, !tbaa !15
  %22 = getelementptr inbounds nuw %struct.fileio, ptr %21, i32 0, i32 2
  %23 = load i8, ptr %22, align 4
  %24 = and i8 %23, -2
  %25 = or i8 %24, 0
  store i8 %25, ptr %22, align 4
  %26 = load ptr, ptr %8, align 8, !tbaa !15
  %27 = getelementptr inbounds nuw %struct.fileio, ptr %26, i32 0, i32 2
  %28 = load i8, ptr %27, align 4
  %29 = and i8 %28, -3
  %30 = or i8 %29, 0
  store i8 %30, ptr %27, align 4
  %31 = load ptr, ptr %8, align 8, !tbaa !15
  %32 = getelementptr inbounds nuw %struct.fileio, ptr %31, i32 0, i32 2
  %33 = load i8, ptr %32, align 4
  %34 = and i8 %33, -5
  %35 = or i8 %34, 0
  store i8 %35, ptr %32, align 4
  %36 = load ptr, ptr %8, align 8, !tbaa !15
  %37 = getelementptr inbounds nuw %struct.fileio, ptr %36, i32 0, i32 2
  %38 = load i8, ptr %37, align 4
  %39 = and i8 %38, -9
  %40 = or i8 %39, 0
  store i8 %40, ptr %37, align 4
  %41 = load ptr, ptr %8, align 8, !tbaa !15
  %42 = getelementptr inbounds nuw %struct.fileio, ptr %41, i32 0, i32 2
  %43 = load i8, ptr %42, align 4
  %44 = and i8 %43, -49
  %45 = or i8 %44, 48
  store i8 %45, ptr %42, align 4
  %46 = load ptr, ptr %8, align 8, !tbaa !15
  %47 = getelementptr inbounds nuw %struct.fileio, ptr %46, i32 0, i32 4
  store ptr null, ptr %47, align 8, !tbaa !17
  %48 = load ptr, ptr %8, align 8, !tbaa !15
  %49 = getelementptr inbounds nuw %struct.fileio, ptr %48, i32 0, i32 2
  %50 = load i8, ptr %49, align 4
  %51 = and i8 %50, -65
  %52 = or i8 %51, 64
  store i8 %52, ptr %49, align 4
  %53 = load ptr, ptr %8, align 8, !tbaa !15
  %54 = getelementptr inbounds nuw %struct.fileio, ptr %53, i32 0, i32 5
  store ptr null, ptr %54, align 8, !tbaa !18
  %55 = load ptr, ptr %8, align 8, !tbaa !15
  store ptr %55, ptr %4, align 8
  store i32 1, ptr %9, align 4
  br label %56

56:                                               ; preds = %18, %17
  call void @llvm.lifetime.end.p0(i64 8, ptr %8) #9
  %57 = load ptr, ptr %4, align 8
  ret ptr %57
}