; Function Attrs: nounwind uwtable
define internal ptr @fileio_new(ptr noundef %0, ptr readnone captures(none) %1, ptr readnone captures(none) %2) #1 {
  %4 = getelementptr inbounds nuw i8, ptr %0, i64 304
  %5 = load ptr, ptr %4, align 8, !tbaa !48
  %6 = tail call ptr %5(ptr noundef %0, i64 noundef 0) #10
  %7 = icmp eq ptr %6, null
  br i1 %7, label %16, label %8

8:                                                ; preds = %3
  %9 = getelementptr inbounds nuw i8, ptr %6, i64 16
  store i32 -1, ptr %9, align 8, !tbaa !4
  %10 = getelementptr inbounds nuw i8, ptr %6, i64 20
  %11 = load i8, ptr %10, align 4
  %12 = and i8 %11, -128
  %13 = getelementptr inbounds nuw i8, ptr %6, i64 24
  store ptr null, ptr %13, align 8, !tbaa !19
  %14 = or disjoint i8 %12, 112
  store i8 %14, ptr %10, align 4
  %15 = getelementptr inbounds nuw i8, ptr %6, i64 32
  store ptr null, ptr %15, align 8, !tbaa !20
  br label %16

16:                                               ; preds = %3, %8
  ret ptr %6
}